; Function Attrs: mustprogress ssp uwtable
define noundef nonnull align 8 dereferenceable(32) ptr @_ZN6open3d7utility15LeftStripStringERNSt7__cxx1112basic_stringIcSt11char_traitsIcESaIcEEERKS6_(ptr noundef nonnull returned align 8 dereferenceable(32) %0, ptr noundef nonnull readonly align 8 captures(none) dereferenceable(32) %1) local_unnamed_addr #0 personality ptr @__gxx_personality_v0 {
  %3 = load ptr, ptr %1, align 8, !tbaa !4
  %4 = getelementptr inbounds nuw i8, ptr %1, i64 8
  %5 = load i64, ptr %4, align 8, !tbaa !12
  %6 = tail call noundef i64 @_ZNKSt7__cxx1112basic_stringIcSt11char_traitsIcESaIcEE17find_first_not_ofEPKcmm(ptr noundef nonnull align 8 dereferenceable(32) %0, ptr noundef %3, i64 noundef 0, i64 noundef %5) #30
  %7 = getelementptr inbounds nuw i8, ptr %0, i64 8
  switch i64 %6, label %10 [
    i64 -1, label %8
    i64 0, label %_ZNSt7__cxx1112basic_stringIcSt11char_traitsIcESaIcEE5eraseEmm.exit
  ]

8:                                                ; preds = %2
  store i64 0, ptr %7, align 8, !tbaa !12
  %9 = load ptr, ptr %0, align 8, !tbaa !4
  store i8 0, ptr %9, align 1, !tbaa !18
  br label %_ZNSt7__cxx1112basic_stringIcSt11char_traitsIcESaIcEE5eraseEmm.exit

10:                                               ; preds = %2
  %11 = load i64, ptr %7, align 8, !tbaa !12
  %spec.select.i.i = tail call noundef i64 @llvm.umin.i64(i64 %6, i64 %11)
  tail call void @_ZNSt7__cxx1112basic_stringIcSt11char_traitsIcESaIcEE8_M_eraseEmm(ptr noundef nonnull align 8 dereferenceable(32) %0, i64 noundef 0, i64 noundef %spec.select.i.i)
  br label %_ZNSt7__cxx1112basic_stringIcSt11char_traitsIcESaIcEE5eraseEmm.exit

_ZNSt7__cxx1112basic_stringIcSt11char_traitsIcESaIcEE5eraseEmm.exit: ; preds = %2, %8, %10
  ret ptr %0
}